target datalayout = "e-m:e-p270:32:32-p271:32:32-p272:64:64-i64:64-i128:128-f80:128-n8:16:32:64-S128"
target triple = "x86_64-pc-linux-gnu"

; Function Attrs: inlinehint nounwind uwtable
define internal ptr @ossl_check_X509_CRL_type(ptr noundef %0) #5 {
  %2 = alloca ptr, align 8
  store ptr %0, ptr %2, align 8, !tbaa !71
  %3 = load ptr, ptr %2, align 8, !tbaa !71
  ret ptr %3
}

; Function Attrs: inlinehint nounwind uwtable
define internal ptr @ossl_check_X509_CRL_sk_type(ptr noundef %0) #5 {
  %2 = alloca ptr, align 8
  store ptr %0, ptr %2, align 8, !tbaa !73
  %3 = load ptr, ptr %2, align 8, !tbaa !73
  ret ptr %3
}

; Function Attrs: inlinehint nounwind uwtable
define internal ptr @ossl_check_DIST_POINT_freefunc_type(ptr noundef %0) #5 {
  %2 = alloca ptr, align 8
  store ptr %0, ptr %2, align 8, !tbaa !30
  %3 = load ptr, ptr %2, align 8, !tbaa !30
  ret ptr %3
}

; Function Attrs: inlinehint nounwind uwtable
define internal ptr @ossl_check_DIST_POINT_sk_type(ptr noundef %0) #5 {
  %2 = alloca ptr, align 8
  store ptr %0, ptr %2, align 8, !tbaa !161
  %3 = load ptr, ptr %2, align 8, !tbaa !161
  ret ptr %3
}

; Function Attrs: nounwind uwtable
define internal ptr @crls_http_cb(ptr noundef %0, ptr noundef %1) #0 {
  %3 = alloca ptr, align 8
  %4 = alloca ptr, align 8
  %5 = alloca ptr, align 8
  %6 = alloca ptr, align 8
  %7 = alloca ptr, align 8
  %8 = alloca ptr, align 8
  %9 = alloca ptr, align 8
  %10 = alloca i32, align 4
  store ptr %0, ptr %4, align 8, !tbaa !145
  store ptr %1, ptr %5, align 8, !tbaa !39
  call void @llvm.lifetime.start.p0(i64 8, ptr %6) #12
  call void @llvm.lifetime.start.p0(i64 8, ptr %7) #12
  store ptr null, ptr %7, align 8, !tbaa !73
  call void @llvm.lifetime.start.p0(i64 8, ptr %8) #12
  call void @llvm.lifetime.start.p0(i64 8, ptr %9) #12
  %11 = call ptr @OPENSSL_sk_new_null()
  store ptr %11, ptr %7, align 8, !tbaa !73
  %12 = load ptr, ptr %7, align 8, !tbaa !73
  %13 = icmp ne ptr %12, null
  br i1 %13, label %15, label %14

14:                                               ; preds = %2
  store ptr null, ptr %3, align 8
  store i32 1, ptr %10, align 4
  br label %59

15:                                               ; preds = %2
  %16 = load ptr, ptr %4, align 8, !tbaa !145
  %17 = call ptr @X509_STORE_CTX_get_current_cert(ptr noundef %16)
  store ptr %17, ptr %6, align 8, !tbaa !37
  %18 = load ptr, ptr %6, align 8, !tbaa !37
  %19 = call ptr @X509_get_ext_d2i(ptr noundef %18, i32 noundef 103, ptr noundef null, ptr noundef null)
  store ptr %19, ptr %9, align 8, !tbaa !161
  %20 = load ptr, ptr %9, align 8, !tbaa !161
  %21 = call ptr @load_crl_crldp(ptr noundef %20)
  store ptr %21, ptr %8, align 8, !tbaa !71
  %22 = load ptr, ptr %9, align 8, !tbaa !161
  %23 = call ptr @ossl_check_DIST_POINT_sk_type(ptr noundef %22)
  %24 = call ptr @ossl_check_DIST_POINT_freefunc_type(ptr noundef @DIST_POINT_free)
  call void @OPENSSL_sk_pop_free(ptr noundef %23, ptr noundef %24)
  %25 = load ptr, ptr %8, align 8, !tbaa !71
  %26 = icmp eq ptr %25, null
  br i1 %26, label %34, label %27

27:                                               ; preds = %15
  %28 = load ptr, ptr %7, align 8, !tbaa !73
  %29 = call ptr @ossl_check_X509_CRL_sk_type(ptr noundef %28)
  %30 = load ptr, ptr %8, align 8, !tbaa !71
  %31 = call ptr @ossl_check_X509_CRL_type(ptr noundef %30)
  %32 = call i32 @OPENSSL_sk_push(ptr noundef %29, ptr noundef %31)
  %33 = icmp ne i32 %32, 0
  br i1 %33, label %35, label %34

34:                                               ; preds = %27, %15
  br label %55

35:                                               ; preds = %27
  %36 = load ptr, ptr %6, align 8, !tbaa !37
  %37 = call ptr @X509_get_ext_d2i(ptr noundef %36, i32 noundef 857, ptr noundef null, ptr noundef null)
  store ptr %37, ptr %9, align 8, !tbaa !161
  %38 = load ptr, ptr %9, align 8, !tbaa !161
  %39 = call ptr @load_crl_crldp(ptr noundef %38)
  store ptr %39, ptr %8, align 8, !tbaa !71
  %40 = load ptr, ptr %9, align 8, !tbaa !161
  %41 = call ptr @ossl_check_DIST_POINT_sk_type(ptr noundef %40)
  %42 = call ptr @ossl_check_DIST_POINT_freefunc_type(ptr noundef @DIST_POINT_free)
  call void @OPENSSL_sk_pop_free(ptr noundef %41, ptr noundef %42)
  %43 = load ptr, ptr %8, align 8, !tbaa !71
  %44 = icmp ne ptr %43, null
  br i1 %44, label %45, label %53

45:                                               ; preds = %35
  %46 = load ptr, ptr %7, align 8, !tbaa !73
  %47 = call ptr @ossl_check_X509_CRL_sk_type(ptr noundef %46)
  %48 = load ptr, ptr %8, align 8, !tbaa !71
  %49 = call ptr @ossl_check_X509_CRL_type(ptr noundef %48)
  %50 = call i32 @OPENSSL_sk_push(ptr noundef %47, ptr noundef %49)
  %51 = icmp ne i32 %50, 0
  br i1 %51, label %53, label %52

52:                                               ; preds = %45
  br label %55

53:                                               ; preds = %45, %35
  %54 = load ptr, ptr %7, align 8, !tbaa !73
  store ptr %54, ptr %3, align 8
  store i32 1, ptr %10, align 4
  br label %59

55:                                               ; preds = %52, %34
  %56 = load ptr, ptr %8, align 8, !tbaa !71
  call void @X509_CRL_free(ptr noundef %56)
  %57 = load ptr, ptr %7, align 8, !tbaa !73
  %58 = call ptr @ossl_check_X509_CRL_sk_type(ptr noundef %57)
  call void @OPENSSL_sk_free(ptr noundef %58)
  store ptr null, ptr %3, align 8
  store i32 1, ptr %10, align 4
  br label %59

59:                                               ; preds = %55, %53, %14
  call void @llvm.lifetime.end.p0(i64 8, ptr %9) #12
  call void @llvm.lifetime.end.p0(i64 8, ptr %8) #12
  call void @llvm.lifetime.end.p0(i64 8, ptr %7) #12
  call void @llvm.lifetime.end.p0(i64 8, ptr %6) #12
  %60 = load ptr, ptr %3, align 8
  ret ptr %60
}