; Function Attrs: nounwind uwtable
define internal ptr @crls_http_cb(ptr noundef %0, ptr readnone captures(none) %1) #0 {
  %3 = tail call ptr @OPENSSL_sk_new_null() #27
  %.not = icmp eq ptr %3, null
  br i1 %.not, label %17, label %4

4:                                                ; preds = %2
  %5 = tail call ptr @X509_STORE_CTX_get_current_cert(ptr noundef %0) #27
  %6 = tail call ptr @X509_get_ext_d2i(ptr noundef %5, i32 noundef 103, ptr noundef null, ptr noundef null) #27
  %7 = tail call fastcc ptr @load_crl_crldp(ptr noundef %6)
  tail call void @OPENSSL_sk_pop_free(ptr noundef %6, ptr noundef nonnull @DIST_POINT_free) #27
  %8 = icmp eq ptr %7, null
  br i1 %8, label %16, label %9

9:                                                ; preds = %4
  %10 = tail call i32 @OPENSSL_sk_push(ptr noundef nonnull %3, ptr noundef nonnull %7) #27
  %.not22 = icmp eq i32 %10, 0
  br i1 %.not22, label %16, label %11

11:                                               ; preds = %9
  %12 = tail call ptr @X509_get_ext_d2i(ptr noundef %5, i32 noundef 857, ptr noundef null, ptr noundef null) #27
  %13 = tail call fastcc ptr @load_crl_crldp(ptr noundef %12)
  tail call void @OPENSSL_sk_pop_free(ptr noundef %12, ptr noundef nonnull @DIST_POINT_free) #27
  %.not23 = icmp eq ptr %13, null
  br i1 %.not23, label %17, label %14

14:                                               ; preds = %11
  %15 = tail call i32 @OPENSSL_sk_push(ptr noundef nonnull %3, ptr noundef nonnull %13) #27
  %.not24 = icmp eq i32 %15, 0
  br i1 %.not24, label %16, label %17

16:                                               ; preds = %14, %4, %9
  %.0 = phi ptr [ null, %4 ], [ %13, %14 ], [ %7, %9 ]
  tail call void @X509_CRL_free(ptr noundef %.0) #27
  tail call void @OPENSSL_sk_free(ptr noundef nonnull %3) #27
  br label %17

17:                                               ; preds = %11, %14, %2, %16
  %.018 = phi ptr [ null, %16 ], [ null, %2 ], [ %3, %14 ], [ %3, %11 ]
  ret ptr %.018
}